; Function Attrs: mustprogress uwtable
define hidden void @_ZN19OpenColorIO_v2_4dev11Lut1DOpDataC2EmNS_18TransformDirectionE(ptr noundef nonnull align 8 dereferenceable(364) %this, i64 noundef %dimension, i32 noundef %dir) unnamed_addr #3 align 2 personality ptr @__gxx_personality_v0 {
entry:
  tail call void @_ZN19OpenColorIO_v2_4dev6OpDataC2Ev(ptr noundef nonnull align 8 dereferenceable(168) %this)
  store ptr getelementptr inbounds ({ [14 x ptr] }, ptr @_ZTVN19OpenColorIO_v2_4dev11Lut1DOpDataE, i64 0, i32 0, i64 2), ptr %this, align 8
  %m_interpolation = getelementptr inbounds i8, ptr %this, i64 168
  store i32 254, ptr %m_interpolation, align 8
  %m_array = getelementptr inbounds i8, ptr %this, i64 176
  invoke void @_ZN19OpenColorIO_v2_4dev11Lut1DOpData13Lut3by1DArrayC2ENS0_9HalfFlagsEmmb(ptr noundef nonnull align 8 dereferenceable(48) %m_array, i32 noundef 0, i64 noundef 3, i64 noundef %dimension, i1 noundef zeroext false)
          to label %invoke.cont unwind label %lpad

invoke.cont:                                      ; preds = %entry
  %m_halfFlags = getelementptr inbounds i8, ptr %this, i64 224
  store i32 0, ptr %m_halfFlags, align 8
  %m_hueAdjust = getelementptr inbounds i8, ptr %this, i64 228
  store i32 0, ptr %m_hueAdjust, align 4
  %m_direction = getelementptr inbounds i8, ptr %this, i64 232
  store i32 %dir, ptr %m_direction, align 8
  br label %arrayctor.loop

arrayctor.loop:                                   ; preds = %arrayctor.loop, %invoke.cont
  %arrayctor.cur.idx = phi i64 [ 240, %invoke.cont ], [ %arrayctor.cur.add, %arrayctor.loop ]
  %arrayctor.cur.ptr = getelementptr inbounds i8, ptr %this, i64 %arrayctor.cur.idx
  store i8 0, ptr %arrayctor.cur.ptr, align 8
  %startDomain.i = getelementptr inbounds i8, ptr %arrayctor.cur.ptr, i64 8
  tail call void @llvm.memset.p0.i64(ptr noundef nonnull align 8 dereferenceable(32) %startDomain.i, i8 0, i64 32, i1 false)
  %arrayctor.cur.add = add nuw nsw i64 %arrayctor.cur.idx, 40
  %arrayctor.done = icmp eq i64 %arrayctor.cur.add, 360
  br i1 %arrayctor.done, label %arrayctor.cont, label %arrayctor.loop

arrayctor.cont:                                   ; preds = %arrayctor.loop
  %m_fileOutBitDepth = getelementptr inbounds i8, ptr %this, i64 360
  store i32 0, ptr %m_fileOutBitDepth, align 8
  ret void

lpad:                                             ; preds = %entry
  %0 = landingpad { ptr, i32 }
          cleanup
  store ptr getelementptr inbounds ({ [13 x ptr] }, ptr @_ZTVN19OpenColorIO_v2_4dev6OpDataE, i64 0, i32 0, i64 2), ptr %this, align 8
  %m_metadata.i = getelementptr inbounds i8, ptr %this, i64 48
  tail call void @_ZN19OpenColorIO_v2_4dev18FormatMetadataImplD1Ev(ptr noundef nonnull align 8 dereferenceable(120) %m_metadata.i) #25
  resume { ptr, i32 } %0
}